Certificate:
    Data:
        Version: 1 (0x0)
        Serial Number: 1 (0x1)
    Signature Algorithm: md5WithRSAEncryption
        Issuer: C=BE, ST=Liege, L=Spa, O=Internet Widgits Pty Ltd, CN=Pieter/emailAddress=azerty@azerty.com
        Validity
            Not Before: Apr 20 12:24:57 2014 GMT
            Not After : Apr 20 12:24:57 2015 GMT
        Subject: C=BE, ST=Liege, L=Spa, O=Internet Widgits Pty Ltd, CN=azerai@azerai.com/emailAddress=fref@fref.com
        Subject Public Key Info:
            Public Key Algorithm: rsaEncryption
                Public-Key: (512 bit)
                Modulus:
                    00:e4:85:32:6b:da:ef:62:48:b6:05:d2:20:e1:70:
                    ba:cd:3f:b4:c2:73:5a:f7:35:9f:bd:5e:56:04:b7:
                    09:9b:85:c9:37:7f:bb:b0:c9:0a:c7:38:9e:0a:60:
                    fd:42:e0:88:5d:46:88:a7:72:eb:59:41:76:65:9b:
                    bc:c1:d2:b5:79
                Exponent: 65537 (0x10001)
    Signature Algorithm: md5WithRSAEncryption
         b8:1e:ba:ce:82:35:b5:0f:e6:9a:06:53:52:c9:13:31:92:81:
         de:e8:cc:e0:f1:d2:a6:1f:04:7d:e6:ae:93:85:f1:60:8e:08:
         67:1a:32:b6:ac:13:41:14:bf:e8:07:fb:17:d1:da:37:05:d0:
         00:14:f7:a5:c9:44:aa:a8:37:34
-----BEGIN CERTIFICATE-----
MIIB9TCCAZ8CAQEwDQYJKoZIhvcNAQEEBQAwgYExCzAJBgNVBAYTAkJFMQ4wDAYD
VQQIDAVMaWVnZTEMMAoGA1UEBwwDU3BhMSEwHwYDVQQKDBhJbnRlcm5ldCBXaWRn
aXRzIFB0eSBMdGQxDzANBgNVBAMMBlBpZXRlcjEgMB4GCSqGSIb3DQEJARYRYXpl
cnR5QGF6ZXJ0eS5jb20wHhcNMTQwNDIwMTIyNDU3WhcNMTUwNDIwMTIyNDU3WjCB
iDELMAkGA1UEBhMCQkUxDjAMBgNVBAgMBUxpZWdlMQwwCgYDVQQHDANTcGExITAf
BgNVBAoMGEludGVybmV0IFdpZGdpdHMgUHR5IEx0ZDEaMBgGA1UEAwwRYXplcmFp
QGF6ZXJhaS5jb20xHDAaBgkqhkiG9w0BCQEWDWZyZWZAZnJlZi5jb20wXDANBgkq
hkiG9w0BAQEFAANLADBIAkEA5IUya9rvYki2BdIg4XC6zT+0wnNa9zWfvV5WBLcJ
m4XJN3+7sMkKxzieCmD9QuCIXUaIp3LrWUF2ZZu8wdK1eQIDAQABMA0GCSqGSIb3
DQEBBAUAA0EAuB66zoI1tQ/mmgZTUskTMZKB3ujM4PHSph8Efeauk4XxYI4IZxoy
tqwTQRS/6Af7F9HaNwXQABT3pclEqqg3NA==
-----END CERTIFICATE-----
