Certificate:
    Data:
        Version: 1 (0x0)
        Serial Number: 2 (0x2)
    Signature Algorithm: md5WithRSAEncryption
        Issuer: C=BE, ST=Liege, L=Spa, O=Internet Widgits Pty Ltd, CN=Pieter/emailAddress=azerty@azerty.com
        Validity
            Not Before: Apr 20 12:25:26 2014 GMT
            Not After : Apr 20 12:25:26 2015 GMT
        Subject: C=BE, ST=FA, L=FEZ, O=Internet Widgits Pty Ltd, CN=ClientName
        Subject Public Key Info:
            Public Key Algorithm: rsaEncryption
                Public-Key: (512 bit)
                Modulus:
                    00:ef:07:ae:6d:68:97:b9:61:21:e3:be:e2:fe:5b:
                    dd:ac:81:fd:a4:1f:c0:a2:29:4f:0e:86:79:ff:77:
                    4d:48:b1:5f:44:55:0c:bb:c4:0d:c5:64:da:c0:52:
                    4b:5c:5d:31:ee:7e:1a:51:db:e2:2b:56:2f:d3:bf:
                    ef:e7:c7:8c:ff
                Exponent: 65537 (0x10001)
    Signature Algorithm: md5WithRSAEncryption
         62:8f:68:7d:cf:f0:ff:e0:86:33:58:94:d1:ce:cd:22:32:74:
         01:ee:82:d1:e9:a1:85:74:56:7c:74:7b:b3:81:b3:09:bc:5e:
         9a:2c:bc:2f:d0:70:11:e8:d7:76:a6:6d:e2:ff:3e:07:47:91:
         8f:bc:8a:75:aa:6c:bc:fb:67:9c
-----BEGIN CERTIFICATE-----
MIIBzDCCAXYCAQIwDQYJKoZIhvcNAQEEBQAwgYExCzAJBgNVBAYTAkJFMQ4wDAYD
VQQIDAVMaWVnZTEMMAoGA1UEBwwDU3BhMSEwHwYDVQQKDBhJbnRlcm5ldCBXaWRn
aXRzIFB0eSBMdGQxDzANBgNVBAMMBlBpZXRlcjEgMB4GCSqGSIb3DQEJARYRYXpl
cnR5QGF6ZXJ0eS5jb20wHhcNMTQwNDIwMTIyNTI2WhcNMTUwNDIwMTIyNTI2WjBg
MQswCQYDVQQGEwJCRTELMAkGA1UECAwCRkExDDAKBgNVBAcMA0ZFWjEhMB8GA1UE
CgwYSW50ZXJuZXQgV2lkZ2l0cyBQdHkgTHRkMRMwEQYDVQQDDApDbGllbnROYW1l
MFwwDQYJKoZIhvcNAQEBBQADSwAwSAJBAO8Hrm1ol7lhIeO+4v5b3ayB/aQfwKIp
Tw6Gef93TUixX0RVDLvEDcVk2sBSS1xdMe5+GlHb4itWL9O/7+fHjP8CAwEAATAN
BgkqhkiG9w0BAQQFAANBAGKPaH3P8P/ghjNYlNHOzSIydAHugtHpoYV0Vnx0e7OB
swm8XposvC/QcBHo13ambeL/PgdHkY+8inWqbLz7Z5w=
-----END CERTIFICATE-----
